; Function Attrs: inlinehint nounwind uwtable
define internal fastcc noalias nonnull ptr @lean_alloc_ctor(i32 noundef range(i32 0, 2) %0, i32 noundef range(i32 2, 4) %1) unnamed_addr #0 {
  %3 = shl nuw nsw i32 %1, 3
  %narrow = add nuw nsw i32 %3, 8
  %4 = zext nneg i32 %narrow to i64
  tail call void @lean_inc_heartbeat() #5
  %5 = tail call noalias ptr @mi_malloc_small(i64 noundef %4) #5
  %6 = icmp eq ptr %5, null
  br i1 %6, label %7, label %lean_alloc_small_object.exit.i

7:                                                ; preds = %2
  tail call void @lean_internal_panic_out_of_memory() #6
  unreachable

lean_alloc_small_object.exit.i:                   ; preds = %2
  %8 = getelementptr inbounds nuw i8, ptr %5, i64 4
  store i32 1, ptr %5, align 4, !tbaa !8
  %9 = shl nuw nsw i32 %0, 24
  %10 = shl nuw nsw i32 %1, 16
  %11 = or disjoint i32 %9, %10
  %12 = or disjoint i32 %11, %narrow
  store i32 %12, ptr %8, align 4
  ret ptr %5
}